target datalayout = "e-m:e-p270:32:32-p271:32:32-p272:64:64-i64:64-i128:128-f80:128-n8:16:32:64-S128"
target triple = "x86_64-pc-linux-gnu"

%struct.re_pattern_buffer = type { ptr, i32, i32, i32, i32, i32, i32, i32, i32, i32, i32, i32, i32, i32, ptr, ptr, ptr, ptr, i32, i32, i32, i32, i64, i64, i32, ptr, ptr, [256 x i8], ptr, ptr, i64, i64, i64, ptr }

; Function Attrs: nounwind sspstrong uwtable
define dso_local i64 @onig_memsize(ptr noundef %0) #0 {
  %2 = alloca i64, align 8
  %3 = alloca ptr, align 8
  %4 = alloca i64, align 8
  %5 = alloca i32, align 4
  store ptr %0, ptr %3, align 8, !tbaa !21
  call void @llvm.lifetime.start.p0(i64 8, ptr %4) #11
  store i64 456, ptr %4, align 8, !tbaa !14
  %6 = load ptr, ptr %3, align 8, !tbaa !21
  %7 = icmp eq ptr %6, null
  br i1 %7, label %8, label %9

8:                                                ; preds = %1
  store i64 0, ptr %2, align 8
  store i32 1, ptr %5, align 4
  br label %81

9:                                                ; preds = %1
  %10 = load ptr, ptr %3, align 8, !tbaa !21
  %11 = getelementptr inbounds nuw %struct.re_pattern_buffer, ptr %10, i32 0, i32 0
  %12 = load ptr, ptr %11, align 8, !tbaa !23
  %13 = icmp ne ptr %12, null
  br i1 %13, label %14, label %21

14:                                               ; preds = %9
  %15 = load ptr, ptr %3, align 8, !tbaa !21
  %16 = getelementptr inbounds nuw %struct.re_pattern_buffer, ptr %15, i32 0, i32 2
  %17 = load i32, ptr %16, align 4, !tbaa !41
  %18 = zext i32 %17 to i64
  %19 = load i64, ptr %4, align 8, !tbaa !14
  %20 = add i64 %19, %18
  store i64 %20, ptr %4, align 8, !tbaa !14
  br label %21

21:                                               ; preds = %14, %9
  %22 = load ptr, ptr %3, align 8, !tbaa !21
  %23 = getelementptr inbounds nuw %struct.re_pattern_buffer, ptr %22, i32 0, i32 25
  %24 = load ptr, ptr %23, align 8, !tbaa !27
  %25 = icmp ne ptr %24, null
  br i1 %25, label %26, label %38

26:                                               ; preds = %21
  %27 = load ptr, ptr %3, align 8, !tbaa !21
  %28 = getelementptr inbounds nuw %struct.re_pattern_buffer, ptr %27, i32 0, i32 26
  %29 = load ptr, ptr %28, align 8, !tbaa !40
  %30 = load ptr, ptr %3, align 8, !tbaa !21
  %31 = getelementptr inbounds nuw %struct.re_pattern_buffer, ptr %30, i32 0, i32 25
  %32 = load ptr, ptr %31, align 8, !tbaa !27
  %33 = ptrtoint ptr %29 to i64
  %34 = ptrtoint ptr %32 to i64
  %35 = sub i64 %33, %34
  %36 = load i64, ptr %4, align 8, !tbaa !14
  %37 = add i64 %36, %35
  store i64 %37, ptr %4, align 8, !tbaa !14
  br label %38

38:                                               ; preds = %26, %21
  %39 = load ptr, ptr %3, align 8, !tbaa !21
  %40 = getelementptr inbounds nuw %struct.re_pattern_buffer, ptr %39, i32 0, i32 28
  %41 = load ptr, ptr %40, align 8, !tbaa !28
  %42 = icmp ne ptr %41, null
  br i1 %42, label %43, label %46

43:                                               ; preds = %38
  %44 = load i64, ptr %4, align 8, !tbaa !14
  %45 = add i64 %44, 1024
  store i64 %45, ptr %4, align 8, !tbaa !14
  br label %46

46:                                               ; preds = %43, %38
  %47 = load ptr, ptr %3, align 8, !tbaa !21
  %48 = getelementptr inbounds nuw %struct.re_pattern_buffer, ptr %47, i32 0, i32 29
  %49 = load ptr, ptr %48, align 8, !tbaa !29
  %50 = icmp ne ptr %49, null
  br i1 %50, label %51, label %54

51:                                               ; preds = %46
  %52 = load i64, ptr %4, align 8, !tbaa !14
  %53 = add i64 %52, 1024
  store i64 %53, ptr %4, align 8, !tbaa !14
  br label %54

54:                                               ; preds = %51, %46
  %55 = load ptr, ptr %3, align 8, !tbaa !21
  %56 = getelementptr inbounds nuw %struct.re_pattern_buffer, ptr %55, i32 0, i32 14
  %57 = load ptr, ptr %56, align 8, !tbaa !30
  %58 = icmp ne ptr %57, null
  br i1 %58, label %59, label %67

59:                                               ; preds = %54
  %60 = load ptr, ptr %3, align 8, !tbaa !21
  %61 = getelementptr inbounds nuw %struct.re_pattern_buffer, ptr %60, i32 0, i32 12
  %62 = load i32, ptr %61, align 4, !tbaa !42
  %63 = sext i32 %62 to i64
  %64 = mul i64 %63, 8
  %65 = load i64, ptr %4, align 8, !tbaa !14
  %66 = add i64 %65, %64
  store i64 %66, ptr %4, align 8, !tbaa !14
  br label %67

67:                                               ; preds = %59, %54
  %68 = load ptr, ptr %3, align 8, !tbaa !21
  %69 = getelementptr inbounds nuw %struct.re_pattern_buffer, ptr %68, i32 0, i32 33
  %70 = load ptr, ptr %69, align 8, !tbaa !31
  %71 = icmp ne ptr %70, null
  br i1 %71, label %72, label %79

72:                                               ; preds = %67
  %73 = load ptr, ptr %3, align 8, !tbaa !21
  %74 = getelementptr inbounds nuw %struct.re_pattern_buffer, ptr %73, i32 0, i32 33
  %75 = load ptr, ptr %74, align 8, !tbaa !31
  %76 = call i64 @onig_memsize(ptr noundef %75)
  %77 = load i64, ptr %4, align 8, !tbaa !14
  %78 = add i64 %77, %76
  store i64 %78, ptr %4, align 8, !tbaa !14
  br label %79

79:                                               ; preds = %72, %67
  %80 = load i64, ptr %4, align 8, !tbaa !14
  store i64 %80, ptr %2, align 8
  store i32 1, ptr %5, align 4
  br label %81

81:                                               ; preds = %79, %8
  call void @llvm.lifetime.end.p0(i64 8, ptr %4) #11
  %82 = load i64, ptr %2, align 8
  ret i64 %82
}