; Function Attrs: nofree norecurse nosync nounwind sspstrong memory(read, inaccessiblemem: none) uwtable
define dso_local i64 @onig_memsize(ptr noundef readonly captures(address_is_null) %0) local_unnamed_addr #9 {
  %2 = icmp eq ptr %0, null
  br i1 %2, label %._crit_edge, label %.lr.ph

.lr.ph:                                           ; preds = %1, %tailrecurse
  %.tr29 = phi ptr [ %35, %tailrecurse ], [ %0, %1 ]
  %accumulator.tr28 = phi i64 [ %36, %tailrecurse ], [ 0, %1 ]
  %3 = load ptr, ptr %.tr29, align 8, !tbaa !17
  %.not = icmp eq ptr %3, null
  br i1 %.not, label %9, label %4

4:                                                ; preds = %.lr.ph
  %5 = getelementptr inbounds nuw i8, ptr %.tr29, i64 12
  %6 = load i32, ptr %5, align 4, !tbaa !37
  %7 = zext i32 %6 to i64
  %8 = add nuw nsw i64 %7, 456
  br label %9

9:                                                ; preds = %4, %.lr.ph
  %.0 = phi i64 [ %8, %4 ], [ 456, %.lr.ph ]
  %10 = getelementptr inbounds nuw i8, ptr %.tr29, i64 136
  %11 = load ptr, ptr %10, align 8, !tbaa !23
  %.not23 = icmp eq ptr %11, null
  br i1 %.not23, label %19, label %12

12:                                               ; preds = %9
  %13 = getelementptr inbounds nuw i8, ptr %.tr29, i64 144
  %14 = load ptr, ptr %13, align 8, !tbaa !36
  %15 = ptrtoint ptr %14 to i64
  %16 = ptrtoint ptr %11 to i64
  %17 = sub i64 %.0, %16
  %18 = add i64 %17, %15
  br label %19

19:                                               ; preds = %12, %9
  %.1 = phi i64 [ %18, %12 ], [ %.0, %9 ]
  %20 = getelementptr inbounds nuw i8, ptr %.tr29, i64 408
  %21 = load ptr, ptr %20, align 8, !tbaa !24
  %.not24 = icmp eq ptr %21, null
  %22 = add i64 %.1, 1024
  %spec.select = select i1 %.not24, i64 %.1, i64 %22
  %23 = getelementptr inbounds nuw i8, ptr %.tr29, i64 416
  %24 = load ptr, ptr %23, align 8, !tbaa !25
  %.not25 = icmp eq ptr %24, null
  %25 = add i64 %spec.select, 1024
  %.3 = select i1 %.not25, i64 %spec.select, i64 %25
  %26 = getelementptr inbounds nuw i8, ptr %.tr29, i64 64
  %27 = load ptr, ptr %26, align 8, !tbaa !26
  %.not26 = icmp eq ptr %27, null
  br i1 %.not26, label %tailrecurse, label %28

28:                                               ; preds = %19
  %29 = getelementptr inbounds nuw i8, ptr %.tr29, i64 52
  %30 = load i32, ptr %29, align 4, !tbaa !38
  %31 = sext i32 %30 to i64
  %32 = shl nsw i64 %31, 3
  %33 = add i64 %32, %.3
  br label %tailrecurse

tailrecurse:                                      ; preds = %28, %19
  %.4 = phi i64 [ %33, %28 ], [ %.3, %19 ]
  %34 = getelementptr inbounds nuw i8, ptr %.tr29, i64 448
  %35 = load ptr, ptr %34, align 8, !tbaa !27
  %.not27 = icmp eq ptr %35, null
  %36 = add i64 %.4, %accumulator.tr28
  br i1 %.not27, label %._crit_edge.loopexit, label %.lr.ph

._crit_edge.loopexit:                             ; preds = %tailrecurse
  %37 = add i64 %.4, %accumulator.tr28
  br label %._crit_edge

._crit_edge:                                      ; preds = %._crit_edge.loopexit, %1
  %accumulator.ret.tr = phi i64 [ 0, %1 ], [ %37, %._crit_edge.loopexit ]
  ret i64 %accumulator.ret.tr
}